target datalayout = "e-m:e-p270:32:32-p271:32:32-p272:64:64-i64:64-i128:128-f80:128-n8:16:32:64-S128"
target triple = "x86_64-pc-linux-gnu"

%struct.ldbState = type { ptr, i32, i32, ptr, ptr, ptr, [64 x i32], i32, i32, i32, ptr, i32, i32, ptr, i64, i32 }
%struct.sdshdr8 = type { i8, i8, i8, [0 x i8] }
%struct.sdshdr16 = type <{ i16, i16, i8, [0 x i8] }>
%struct.sdshdr32 = type <{ i32, i32, i8, [0 x i8] }>
%struct.sdshdr64 = type <{ i64, i64, i8, [0 x i8] }>

@ldb = dso_local global %struct.ldbState zeroinitializer, align 8
@.str.4 = private unnamed_addr constant [6 x i8] c"redis\00", align 1
@.str.105 = private unnamed_addr constant [9 x i8] c"<reply> \00", align 1
@.str.126 = private unnamed_addr constant [22 x i8] c"max lua stack reached\00", align 1
@.str.127 = private unnamed_addr constant [5 x i8] c"call\00", align 1

; Function Attrs: inlinehint nounwind uwtable
define internal i64 @sdslen(ptr noundef %0) #6 {
  %2 = alloca i64, align 8
  %3 = alloca ptr, align 8
  %4 = alloca i8, align 1
  %5 = alloca i32, align 4
  store ptr %0, ptr %3, align 8, !tbaa !16
  call void @llvm.lifetime.start.p0(i64 1, ptr %4) #14
  %6 = load ptr, ptr %3, align 8, !tbaa !16
  %7 = getelementptr inbounds i8, ptr %6, i64 -1
  %8 = load i8, ptr %7, align 1, !tbaa !21
  store i8 %8, ptr %4, align 1, !tbaa !21
  %9 = load i8, ptr %4, align 1, !tbaa !21
  %10 = zext i8 %9 to i32
  %11 = and i32 %10, 7
  switch i32 %11, label %40 [
    i32 0, label %12
    i32 1, label %17
    i32 2, label %23
    i32 3, label %29
    i32 4, label %35
  ]

12:                                               ; preds = %1
  %13 = load i8, ptr %4, align 1, !tbaa !21
  %14 = zext i8 %13 to i32
  %15 = ashr i32 %14, 3
  %16 = sext i32 %15 to i64
  store i64 %16, ptr %2, align 8
  store i32 1, ptr %5, align 4
  br label %41

17:                                               ; preds = %1
  %18 = load ptr, ptr %3, align 8, !tbaa !16
  %19 = getelementptr inbounds i8, ptr %18, i64 -3
  %20 = getelementptr inbounds nuw %struct.sdshdr8, ptr %19, i32 0, i32 0
  %21 = load i8, ptr %20, align 1, !tbaa !21
  %22 = zext i8 %21 to i64
  store i64 %22, ptr %2, align 8
  store i32 1, ptr %5, align 4
  br label %41

23:                                               ; preds = %1
  %24 = load ptr, ptr %3, align 8, !tbaa !16
  %25 = getelementptr inbounds i8, ptr %24, i64 -5
  %26 = getelementptr inbounds nuw %struct.sdshdr16, ptr %25, i32 0, i32 0
  %27 = load i16, ptr %26, align 1, !tbaa !109
  %28 = zext i16 %27 to i64
  store i64 %28, ptr %2, align 8
  store i32 1, ptr %5, align 4
  br label %41

29:                                               ; preds = %1
  %30 = load ptr, ptr %3, align 8, !tbaa !16
  %31 = getelementptr inbounds i8, ptr %30, i64 -9
  %32 = getelementptr inbounds nuw %struct.sdshdr32, ptr %31, i32 0, i32 0
  %33 = load i32, ptr %32, align 1, !tbaa !19
  %34 = zext i32 %33 to i64
  store i64 %34, ptr %2, align 8
  store i32 1, ptr %5, align 4
  br label %41

35:                                               ; preds = %1
  %36 = load ptr, ptr %3, align 8, !tbaa !16
  %37 = getelementptr inbounds i8, ptr %36, i64 -17
  %38 = getelementptr inbounds nuw %struct.sdshdr64, ptr %37, i32 0, i32 0
  %39 = load i64, ptr %38, align 1, !tbaa !18
  store i64 %39, ptr %2, align 8
  store i32 1, ptr %5, align 4
  br label %41

40:                                               ; preds = %1
  store i64 0, ptr %2, align 8
  store i32 1, ptr %5, align 4
  br label %41

41:                                               ; preds = %40, %35, %29, %23, %17, %12
  call void @llvm.lifetime.end.p0(i64 1, ptr %4) #14
  %42 = load i64, ptr %2, align 8
  ret i64 %42
}

; Function Attrs: nounwind uwtable
define dso_local void @ldbLogRedisReply(ptr noundef %0) #0 {
  %2 = alloca ptr, align 8
  %3 = alloca ptr, align 8
  store ptr %0, ptr %2, align 8, !tbaa !16
  call void @llvm.lifetime.start.p0(i64 8, ptr %3) #14
  %4 = call ptr @sdsnew(ptr noundef @.str.105)
  store ptr %4, ptr %3, align 8, !tbaa !16
  %5 = load ptr, ptr %2, align 8, !tbaa !16
  %6 = call ptr @ldbRedisProtocolToHuman(ptr noundef %3, ptr noundef %5)
  %7 = load ptr, ptr %3, align 8, !tbaa !16
  call void @ldbLogWithMaxLen(ptr noundef %7)
  call void @llvm.lifetime.end.p0(i64 8, ptr %3) #14
  ret void
}

; Function Attrs: nounwind uwtable
define dso_local void @ldbRedis(ptr noundef %0, ptr noundef %1, i32 noundef %2) #0 {
  %4 = alloca ptr, align 8
  %5 = alloca ptr, align 8
  %6 = alloca i32, align 4
  %7 = alloca i32, align 4
  %8 = alloca i32, align 4
  store ptr %0, ptr %4, align 8, !tbaa !24
  store ptr %1, ptr %5, align 8, !tbaa !100
  store i32 %2, ptr %6, align 4, !tbaa !19
  call void @llvm.lifetime.start.p0(i64 4, ptr %7) #14
  %9 = load ptr, ptr %4, align 8, !tbaa !24
  %10 = load i32, ptr %6, align 4, !tbaa !19
  %11 = add nsw i32 %10, 1
  %12 = call i32 @lua_checkstack(ptr noundef %9, i32 noundef %11)
  %13 = icmp ne i32 %12, 0
  br i1 %13, label %15, label %14

14:                                               ; preds = %3
  call void @ldbLogRedisReply(ptr noundef @.str.126)
  store i32 1, ptr %8, align 4
  br label %45

15:                                               ; preds = %3
  %16 = load ptr, ptr %4, align 8, !tbaa !24
  call void @lua_getfield(ptr noundef %16, i32 noundef -10002, ptr noundef @.str.4)
  %17 = load ptr, ptr %4, align 8, !tbaa !24
  call void @lua_pushstring(ptr noundef %17, ptr noundef @.str.127)
  %18 = load ptr, ptr %4, align 8, !tbaa !24
  call void @lua_gettable(ptr noundef %18, i32 noundef -2)
  store i32 1, ptr %7, align 4, !tbaa !19
  br label %19

19:                                               ; preds = %36, %15
  %20 = load i32, ptr %7, align 4, !tbaa !19
  %21 = load i32, ptr %6, align 4, !tbaa !19
  %22 = icmp slt i32 %20, %21
  br i1 %22, label %23, label %39

23:                                               ; preds = %19
  %24 = load ptr, ptr %4, align 8, !tbaa !24
  %25 = load ptr, ptr %5, align 8, !tbaa !100
  %26 = load i32, ptr %7, align 4, !tbaa !19
  %27 = sext i32 %26 to i64
  %28 = getelementptr inbounds ptr, ptr %25, i64 %27
  %29 = load ptr, ptr %28, align 8, !tbaa !16
  %30 = load ptr, ptr %5, align 8, !tbaa !100
  %31 = load i32, ptr %7, align 4, !tbaa !19
  %32 = sext i32 %31 to i64
  %33 = getelementptr inbounds ptr, ptr %30, i64 %32
  %34 = load ptr, ptr %33, align 8, !tbaa !16
  %35 = call i64 @sdslen(ptr noundef %34)
  call void @lua_pushlstring(ptr noundef %24, ptr noundef %29, i64 noundef %35)
  br label %36

36:                                               ; preds = %23
  %37 = load i32, ptr %7, align 4, !tbaa !19
  %38 = add nsw i32 %37, 1
  store i32 %38, ptr %7, align 4, !tbaa !19
  br label %19, !llvm.loop !183

39:                                               ; preds = %19
  store i32 1, ptr getelementptr inbounds nuw (%struct.ldbState, ptr @ldb, i32 0, i32 8), align 4, !tbaa !152
  %40 = load ptr, ptr %4, align 8, !tbaa !24
  %41 = load i32, ptr %6, align 4, !tbaa !19
  %42 = sub nsw i32 %41, 1
  %43 = call i32 @lua_pcall(ptr noundef %40, i32 noundef %42, i32 noundef 1, i32 noundef 0)
  store i32 0, ptr getelementptr inbounds nuw (%struct.ldbState, ptr @ldb, i32 0, i32 8), align 4, !tbaa !152
  %44 = load ptr, ptr %4, align 8, !tbaa !24
  call void @lua_settop(ptr noundef %44, i32 noundef -3)
  store i32 0, ptr %8, align 4
  br label %45

45:                                               ; preds = %39, %14
  call void @llvm.lifetime.end.p0(i64 4, ptr %7) #14
  %46 = load i32, ptr %8, align 4
  switch i32 %46, label %48 [
    i32 0, label %47
    i32 1, label %47
  ]

47:                                               ; preds = %45, %45
  ret void

48:                                               ; preds = %45
  unreachable
}