; Function Attrs: nounwind uwtable
define dso_local void @ldbRedis(ptr noundef %0, ptr noundef readonly captures(none) %1, i32 noundef %2) local_unnamed_addr #0 {
  %4 = alloca ptr, align 8
  %5 = add nsw i32 %2, 1
  %6 = tail call i32 @lua_checkstack(ptr noundef %0, i32 noundef %5) #19
  %.not = icmp eq i32 %6, 0
  br i1 %.not, label %7, label %11

7:                                                ; preds = %3
  call void @llvm.lifetime.start.p0(i64 8, ptr nonnull %4) #19
  %8 = tail call ptr @sdsnew(ptr noundef nonnull @.str.105) #19
  store ptr %8, ptr %4, align 8, !tbaa !92
  %9 = call ptr @ldbRedisProtocolToHuman(ptr noundef nonnull %4, ptr noundef nonnull @.str.126)
  %10 = load ptr, ptr %4, align 8, !tbaa !92
  tail call void @ldbLogWithMaxLen(ptr noundef %10)
  call void @llvm.lifetime.end.p0(i64 8, ptr nonnull %4) #19
  br label %39

11:                                               ; preds = %3
  tail call void @lua_getfield(ptr noundef %0, i32 noundef -10002, ptr noundef nonnull @.str.4) #19
  tail call void @lua_pushstring(ptr noundef %0, ptr noundef nonnull @.str.127) #19
  tail call void @lua_gettable(ptr noundef %0, i32 noundef -2) #19
  %12 = icmp sgt i32 %2, 1
  br i1 %12, label %.lr.ph.preheader, label %._crit_edge

.lr.ph.preheader:                                 ; preds = %11
  %wide.trip.count = zext nneg i32 %2 to i64
  br label %.lr.ph

.lr.ph:                                           ; preds = %.lr.ph.preheader, %sdslen.exit
  %indvars.iv = phi i64 [ 1, %.lr.ph.preheader ], [ %indvars.iv.next, %sdslen.exit ]
  %13 = getelementptr inbounds nuw ptr, ptr %1, i64 %indvars.iv
  %14 = load ptr, ptr %13, align 8, !tbaa !92
  %15 = getelementptr inbounds i8, ptr %14, i64 -1
  %16 = load i8, ptr %15, align 1, !tbaa !13
  %17 = zext i8 %16 to i32
  %18 = and i32 %17, 7
  switch i32 %18, label %sdslen.exit [
    i32 0, label %19
    i32 1, label %22
    i32 2, label %26
    i32 3, label %30
    i32 4, label %34
  ]

19:                                               ; preds = %.lr.ph
  %20 = lshr i32 %17, 3
  %21 = zext nneg i32 %20 to i64
  br label %sdslen.exit

22:                                               ; preds = %.lr.ph
  %23 = getelementptr inbounds i8, ptr %14, i64 -3
  %24 = load i8, ptr %23, align 1, !tbaa !13
  %25 = zext i8 %24 to i64
  br label %sdslen.exit

26:                                               ; preds = %.lr.ph
  %27 = getelementptr inbounds i8, ptr %14, i64 -5
  %28 = load i16, ptr %27, align 1, !tbaa !94
  %29 = zext i16 %28 to i64
  br label %sdslen.exit

30:                                               ; preds = %.lr.ph
  %31 = getelementptr inbounds i8, ptr %14, i64 -9
  %32 = load i32, ptr %31, align 1, !tbaa !91
  %33 = zext i32 %32 to i64
  br label %sdslen.exit

34:                                               ; preds = %.lr.ph
  %35 = getelementptr inbounds i8, ptr %14, i64 -17
  %36 = load i64, ptr %35, align 1, !tbaa !95
  br label %sdslen.exit

sdslen.exit:                                      ; preds = %.lr.ph, %19, %22, %26, %30, %34
  %.0.i = phi i64 [ %36, %34 ], [ %33, %30 ], [ %29, %26 ], [ %25, %22 ], [ %21, %19 ], [ 0, %.lr.ph ]
  tail call void @lua_pushlstring(ptr noundef %0, ptr noundef nonnull %14, i64 noundef %.0.i) #19
  %indvars.iv.next = add nuw nsw i64 %indvars.iv, 1
  %exitcond.not = icmp eq i64 %indvars.iv.next, %wide.trip.count
  br i1 %exitcond.not, label %._crit_edge, label %.lr.ph, !llvm.loop !166

._crit_edge:                                      ; preds = %sdslen.exit, %11
  store i32 1, ptr getelementptr inbounds nuw (i8, ptr @ldb, i64 300), align 4, !tbaa !139
  %37 = add nsw i32 %2, -1
  %38 = tail call i32 @lua_pcall(ptr noundef %0, i32 noundef %37, i32 noundef 1, i32 noundef 0) #19
  store i32 0, ptr getelementptr inbounds nuw (i8, ptr @ldb, i64 300), align 4, !tbaa !139
  tail call void @lua_settop(ptr noundef %0, i32 noundef -3) #19
  br label %39

39:                                               ; preds = %._crit_edge, %7
  ret void
}